target datalayout = "e-m:e-p270:32:32-p271:32:32-p272:64:64-i64:64-i128:128-f80:128-n8:16:32:64-S128"
target triple = "x86_64-unknown-linux-gnu"

%struct.Chardev = type { %struct.Object, %struct.QemuMutex, ptr, ptr, ptr, i32, i32, i8, ptr, ptr, [1 x i64] }
%struct.Object = type { ptr, ptr, ptr, i32, ptr }
%struct.QemuMutex = type { %union.pthread_mutex_t, i8 }
%union.pthread_mutex_t = type { %struct.__pthread_mutex_s }
%struct.__pthread_mutex_s = type { i32, i32, i32, i32, i32, i16, i16, %struct.__pthread_internal_list }
%struct.__pthread_internal_list = type { ptr, ptr }
%struct.CharBackend = type { ptr, ptr, ptr, ptr, ptr, ptr, i32, i32 }
%struct.MuxChardev = type { %struct.Chardev, [4 x ptr], %struct.CharBackend, i32, i32, i32, i32, [4 x [32 x i8]], [4 x i32], [4 x i32], i32, i32, i64 }

@.str = private unnamed_addr constant [10 x i8] c"/chardevs\00", align 1
@.str.2 = private unnamed_addr constant [23 x i8] c"../qemu/chardev/char.c\00", align 1
@.str.4 = private unnamed_addr constant [8 x i8] c"chardev\00", align 1
@.str.66 = private unnamed_addr constant [12 x i8] c"chardev-mux\00", align 1
@__func__.qmp_chardev_remove = private unnamed_addr constant [19 x i8] c"qmp_chardev_remove\00", align 1
@.str.98 = private unnamed_addr constant [23 x i8] c"Chardev '%s' not found\00", align 1
@.str.99 = private unnamed_addr constant [21 x i8] c"Chardev '%s' is busy\00", align 1
@.str.100 = private unnamed_addr constant [55 x i8] c"Chardev '%s' cannot be unplugged in record/replay mode\00", align 1
@.str.104 = private unnamed_addr constant [101 x i8] c"/home/dtcxzyw/WorkSpace/Projects/compilers/llvm-opt-benchmark/bench/qemu/qemu/include/chardev/char.h\00", align 1
@__func__.CHARDEV = private unnamed_addr constant [8 x i8] c"CHARDEV\00", align 1
@.str.118 = private unnamed_addr constant [35 x i8] c"../qemu/chardev/chardev-internal.h\00", align 1
@__func__.MUX_CHARDEV = private unnamed_addr constant [12 x i8] c"MUX_CHARDEV\00", align 1

; Function Attrs: nounwind sspstrong uwtable
define internal i32 @test_bit(i64 noundef %nr, ptr noundef %addr) #0 {
entry:
  %nr.addr = alloca i64, align 8
  %addr.addr = alloca ptr, align 8
  store i64 %nr, ptr %nr.addr, align 8
  store ptr %addr, ptr %addr.addr, align 8
  %0 = load ptr, ptr %addr.addr, align 8
  %1 = load i64, ptr %nr.addr, align 8
  %div = udiv i64 %1, 64
  %arrayidx = getelementptr i64, ptr %0, i64 %div
  %2 = load i64, ptr %arrayidx, align 8
  %3 = load i64, ptr %nr.addr, align 8
  %and = and i64 %3, 63
  %shr = lshr i64 %2, %and
  %and1 = and i64 1, %shr
  %conv = trunc i64 %and1 to i32
  ret i32 %conv
}

; Function Attrs: nounwind sspstrong uwtable
define internal ptr @MUX_CHARDEV(ptr noundef %obj) #0 {
entry:
  %obj.addr = alloca ptr, align 8
  store ptr %obj, ptr %obj.addr, align 8
  %0 = load ptr, ptr %obj.addr, align 8
  %call = call ptr @object_dynamic_cast_assert(ptr noundef %0, ptr noundef @.str.66, ptr noundef @.str.118, i32 noundef 59, ptr noundef @__func__.MUX_CHARDEV)
  ret ptr %call
}

; Function Attrs: nounwind sspstrong uwtable
define internal ptr @CHARDEV(ptr noundef %obj) #0 {
entry:
  %obj.addr = alloca ptr, align 8
  store ptr %obj, ptr %obj.addr, align 8
  %0 = load ptr, ptr %obj.addr, align 8
  %call = call ptr @object_dynamic_cast_assert(ptr noundef %0, ptr noundef @.str.4, ptr noundef @.str.104, i32 noundef 231, ptr noundef @__func__.CHARDEV)
  ret ptr %call
}

; Function Attrs: nounwind sspstrong uwtable
define dso_local ptr @get_chardevs_root() #0 {
entry:
  %call = call ptr @object_get_root()
  %call1 = call ptr @container_get(ptr noundef %call, ptr noundef @.str)
  ret ptr %call1
}

; Function Attrs: nounwind sspstrong uwtable
define dso_local zeroext i1 @qemu_chr_has_feature(ptr noundef %chr, i32 noundef %feature) #0 {
entry:
  %chr.addr = alloca ptr, align 8
  %feature.addr = alloca i32, align 4
  store ptr %chr, ptr %chr.addr, align 8
  store i32 %feature, ptr %feature.addr, align 4
  %0 = load i32, ptr %feature.addr, align 4
  %conv = zext i32 %0 to i64
  %1 = load ptr, ptr %chr.addr, align 8
  %features = getelementptr inbounds %struct.Chardev, ptr %1, i32 0, i32 10
  %arraydecay = getelementptr inbounds [1 x i64], ptr %features, i64 0, i64 0
  %call = call i32 @test_bit(i64 noundef %conv, ptr noundef %arraydecay)
  %tobool = icmp ne i32 %call, 0
  ret i1 %tobool
}

; Function Attrs: nounwind sspstrong uwtable
define internal zeroext i1 @qemu_chr_is_busy(ptr noundef %s) #0 {
entry:
  %retval = alloca i1, align 1
  %s.addr = alloca ptr, align 8
  %d = alloca ptr, align 8
  store ptr %s, ptr %s.addr, align 8
  %0 = load ptr, ptr %s.addr, align 8
  %call = call ptr @object_dynamic_cast(ptr noundef %0, ptr noundef @.str.66)
  %tobool = icmp ne ptr %call, null
  br i1 %tobool, label %if.then, label %if.else

if.then:                                          ; preds = %entry
  %1 = load ptr, ptr %s.addr, align 8
  %call1 = call ptr @MUX_CHARDEV(ptr noundef %1)
  store ptr %call1, ptr %d, align 8
  %2 = load ptr, ptr %d, align 8
  %mux_cnt = getelementptr inbounds %struct.MuxChardev, ptr %2, i32 0, i32 4
  %3 = load i32, ptr %mux_cnt, align 4
  %cmp = icmp sge i32 %3, 0
  store i1 %cmp, ptr %retval, align 1
  br label %return

if.else:                                          ; preds = %entry
  %4 = load ptr, ptr %s.addr, align 8
  %be = getelementptr inbounds %struct.Chardev, ptr %4, i32 0, i32 2
  %5 = load ptr, ptr %be, align 8
  %cmp2 = icmp ne ptr %5, null
  store i1 %cmp2, ptr %retval, align 1
  br label %return

return:                                           ; preds = %if.else, %if.then
  %6 = load i1, ptr %retval, align 1
  ret i1 %6
}

; Function Attrs: nounwind sspstrong uwtable
define dso_local ptr @qemu_chr_find(ptr noundef %name) #0 {
entry:
  %name.addr = alloca ptr, align 8
  %obj = alloca ptr, align 8
  store ptr %name, ptr %name.addr, align 8
  %call = call ptr @get_chardevs_root()
  %0 = load ptr, ptr %name.addr, align 8
  %call1 = call ptr @object_resolve_path_component(ptr noundef %call, ptr noundef %0)
  store ptr %call1, ptr %obj, align 8
  %1 = load ptr, ptr %obj, align 8
  %tobool = icmp ne ptr %1, null
  br i1 %tobool, label %cond.true, label %cond.false

cond.true:                                        ; preds = %entry
  %2 = load ptr, ptr %obj, align 8
  %call2 = call ptr @CHARDEV(ptr noundef %2)
  br label %cond.end

cond.false:                                       ; preds = %entry
  br label %cond.end

cond.end:                                         ; preds = %cond.false, %cond.true
  %cond = phi ptr [ %call2, %cond.true ], [ null, %cond.false ]
  ret ptr %cond
}

; Function Attrs: nounwind sspstrong uwtable
define dso_local void @qmp_chardev_remove(ptr noundef %id, ptr noundef %errp) #0 {
entry:
  %id.addr = alloca ptr, align 8
  %errp.addr = alloca ptr, align 8
  %chr = alloca ptr, align 8
  store ptr %id, ptr %id.addr, align 8
  store ptr %errp, ptr %errp.addr, align 8
  %0 = load ptr, ptr %id.addr, align 8
  %call = call ptr @qemu_chr_find(ptr noundef %0)
  store ptr %call, ptr %chr, align 8
  %1 = load ptr, ptr %chr, align 8
  %cmp = icmp eq ptr %1, null
  br i1 %cmp, label %if.then, label %if.end

if.then:                                          ; preds = %entry
  %2 = load ptr, ptr %errp.addr, align 8
  %3 = load ptr, ptr %id.addr, align 8
  call void (ptr, ptr, i32, ptr, ptr, ...) @error_setg_internal(ptr noundef %2, ptr noundef @.str.2, i32 noundef 1146, ptr noundef @__func__.qmp_chardev_remove, ptr noundef @.str.98, ptr noundef %3)
  br label %return

if.end:                                           ; preds = %entry
  %4 = load ptr, ptr %chr, align 8
  %call1 = call zeroext i1 @qemu_chr_is_busy(ptr noundef %4)
  br i1 %call1, label %if.then2, label %if.end3

if.then2:                                         ; preds = %if.end
  %5 = load ptr, ptr %errp.addr, align 8
  %6 = load ptr, ptr %id.addr, align 8
  call void (ptr, ptr, i32, ptr, ptr, ...) @error_setg_internal(ptr noundef %5, ptr noundef @.str.2, i32 noundef 1150, ptr noundef @__func__.qmp_chardev_remove, ptr noundef @.str.99, ptr noundef %6)
  br label %return

if.end3:                                          ; preds = %if.end
  %7 = load ptr, ptr %chr, align 8
  %call4 = call zeroext i1 @qemu_chr_has_feature(ptr noundef %7, i32 noundef 2)
  br i1 %call4, label %if.then5, label %if.end6

if.then5:                                         ; preds = %if.end3
  %8 = load ptr, ptr %errp.addr, align 8
  %9 = load ptr, ptr %id.addr, align 8
  call void (ptr, ptr, i32, ptr, ptr, ...) @error_setg_internal(ptr noundef %8, ptr noundef @.str.2, i32 noundef 1155, ptr noundef @__func__.qmp_chardev_remove, ptr noundef @.str.100, ptr noundef %9)
  br label %return

if.end6:                                          ; preds = %if.end3
  %10 = load ptr, ptr %chr, align 8
  call void @object_unparent(ptr noundef %10)
  br label %return

return:                                           ; preds = %if.end6, %if.then5, %if.then2, %if.then
  ret void
}