; Function Attrs: nounwind sspstrong uwtable
define dso_local void @qmp_chardev_remove(ptr noundef %id, ptr noundef %errp) local_unnamed_addr #0 {
entry:
  %call.i.i = tail call ptr @object_get_root() #13
  %call1.i.i = tail call ptr @container_get(ptr noundef %call.i.i, ptr noundef nonnull @.str) #13
  %call1.i = tail call ptr @object_resolve_path_component(ptr noundef %call1.i.i, ptr noundef %id) #13
  %tobool.not.i = icmp eq ptr %call1.i, null
  br i1 %tobool.not.i, label %if.then, label %qemu_chr_find.exit

qemu_chr_find.exit:                               ; preds = %entry
  %call.i2.i = tail call ptr @object_dynamic_cast_assert(ptr noundef nonnull %call1.i, ptr noundef nonnull @.str.4, ptr noundef nonnull @.str.104, i32 noundef 231, ptr noundef nonnull @__func__.CHARDEV) #13
  %cmp = icmp eq ptr %call.i2.i, null
  br i1 %cmp, label %if.then, label %if.end

if.then:                                          ; preds = %entry, %qemu_chr_find.exit
  tail call void (ptr, ptr, i32, ptr, ptr, ...) @error_setg_internal(ptr noundef %errp, ptr noundef nonnull @.str.2, i32 noundef 1146, ptr noundef nonnull @__func__.qmp_chardev_remove, ptr noundef nonnull @.str.98, ptr noundef %id) #13
  br label %return

if.end:                                           ; preds = %qemu_chr_find.exit
  %call.i = tail call ptr @object_dynamic_cast(ptr noundef nonnull %call.i2.i, ptr noundef nonnull @.str.66) #13
  %tobool.not.i9 = icmp eq ptr %call.i, null
  br i1 %tobool.not.i9, label %qemu_chr_is_busy.exit, label %if.then.i

if.then.i:                                        ; preds = %if.end
  %call.i.i10 = tail call ptr @object_dynamic_cast_assert(ptr noundef nonnull %call.i2.i, ptr noundef nonnull @.str.66, ptr noundef nonnull @.str.118, i32 noundef 59, ptr noundef nonnull @__func__.MUX_CHARDEV) #13
  %mux_cnt.i = getelementptr inbounds nuw i8, ptr %call.i.i10, i64 244
  %0 = load i32, ptr %mux_cnt.i, align 4
  %cmp.i = icmp sgt i32 %0, -1
  br i1 %cmp.i, label %if.then2, label %if.end3

qemu_chr_is_busy.exit:                            ; preds = %if.end
  %be.i = getelementptr inbounds nuw i8, ptr %call.i2.i, i64 88
  %1 = load ptr, ptr %be.i, align 8
  %cmp2.i.not = icmp eq ptr %1, null
  br i1 %cmp2.i.not, label %if.end3, label %if.then2

if.then2:                                         ; preds = %if.then.i, %qemu_chr_is_busy.exit
  tail call void (ptr, ptr, i32, ptr, ptr, ...) @error_setg_internal(ptr noundef %errp, ptr noundef nonnull @.str.2, i32 noundef 1150, ptr noundef nonnull @__func__.qmp_chardev_remove, ptr noundef nonnull @.str.99, ptr noundef %id) #13
  br label %return

if.end3:                                          ; preds = %if.then.i, %qemu_chr_is_busy.exit
  %features.i = getelementptr inbounds nuw i8, ptr %call.i2.i, i64 144
  %2 = load i64, ptr %features.i, align 8
  %3 = and i64 %2, 4
  %tobool.i.not = icmp eq i64 %3, 0
  br i1 %tobool.i.not, label %if.end6, label %if.then5

if.then5:                                         ; preds = %if.end3
  tail call void (ptr, ptr, i32, ptr, ptr, ...) @error_setg_internal(ptr noundef %errp, ptr noundef nonnull @.str.2, i32 noundef 1155, ptr noundef nonnull @__func__.qmp_chardev_remove, ptr noundef nonnull @.str.100, ptr noundef %id) #13
  br label %return

if.end6:                                          ; preds = %if.end3
  tail call void @object_unparent(ptr noundef nonnull %call.i2.i) #13
  br label %return

return:                                           ; preds = %if.end6, %if.then5, %if.then2, %if.then
  ret void
}